target datalayout = "e-m:e-p270:32:32-p271:32:32-p272:64:64-i64:64-i128:128-f80:128-n8:16:32:64-S128"
target triple = "x86_64-pc-linux-gnu"

%"class.Ipopt::LowRankSSAugSystemSolver" = type { %"class.Ipopt::AugSystemSolver.base", %"class.Ipopt::SmartPtr.14", i32, i32, double, i32, double, i32, double, i32, i32, double, i32, i32, double, i8, %"class.Ipopt::SmartPtr.15", %"class.Ipopt::SmartPtr.16", %"class.Ipopt::SmartPtr.17", %"class.Ipopt::SmartPtr.18", %"class.Ipopt::SmartPtr.19", i32, i32 }
%"class.Ipopt::AugSystemSolver.base" = type { %"class.Ipopt::AlgorithmStrategyObject.base" }
%"class.Ipopt::AlgorithmStrategyObject.base" = type <{ %"class.Ipopt::ReferencedObject.base", [4 x i8], %"class.Ipopt::SmartPtr.10", %"class.Ipopt::SmartPtr.11", %"class.Ipopt::SmartPtr.12", %"class.Ipopt::SmartPtr.13", i8 }>
%"class.Ipopt::ReferencedObject.base" = type <{ ptr, i32 }>
%"class.Ipopt::SmartPtr.10" = type { ptr }
%"class.Ipopt::SmartPtr.11" = type { ptr }
%"class.Ipopt::SmartPtr.12" = type { ptr }
%"class.Ipopt::SmartPtr.13" = type { ptr }
%"class.Ipopt::SmartPtr.14" = type { ptr }
%"class.Ipopt::SmartPtr.15" = type { ptr }
%"class.Ipopt::SmartPtr.16" = type { ptr }
%"class.Ipopt::SmartPtr.17" = type { ptr }
%"class.Ipopt::SmartPtr.18" = type { ptr }
%"class.Ipopt::SmartPtr.19" = type { ptr }
%"class.Ipopt::TaggedObject" = type { %"class.Ipopt::ReferencedObject.base", %"class.Ipopt::Subject", i32, i32 }
%"class.Ipopt::Subject" = type { ptr, %"class.std::vector" }
%"class.std::vector" = type { %"struct.std::_Vector_base" }
%"struct.std::_Vector_base" = type { %"struct.std::_Vector_base<Ipopt::Observer *, std::allocator<Ipopt::Observer *>>::_Vector_impl" }
%"struct.std::_Vector_base<Ipopt::Observer *, std::allocator<Ipopt::Observer *>>::_Vector_impl" = type { %"struct.std::_Vector_base<Ipopt::Observer *, std::allocator<Ipopt::Observer *>>::_Vector_impl_data" }
%"struct.std::_Vector_base<Ipopt::Observer *, std::allocator<Ipopt::Observer *>>::_Vector_impl_data" = type { ptr, ptr, ptr }

; Function Attrs: mustprogress nounwind uwtable
define linkonce_odr noundef i32 @_ZNK5Ipopt12TaggedObject6GetTagEv(ptr noundef nonnull align 8 dereferenceable(56) %0) #4 comdat align 2 {
  %2 = alloca ptr, align 8
  store ptr %0, ptr %2, align 8, !tbaa !127
  %3 = load ptr, ptr %2, align 8
  %4 = getelementptr inbounds nuw %"class.Ipopt::TaggedObject", ptr %3, i32 0, i32 2
  %5 = load i32, ptr %4, align 8, !tbaa !129
  ret i32 %5
}

; Function Attrs: mustprogress uwtable
define noundef zeroext i1 @_ZN5Ipopt24LowRankSSAugSystemSolver29AugmentedSystemRequiresChangeEPKNS_9SymMatrixEdPKNS_6VectorEdS6_dRKNS_6MatrixES6_dS9_S6_d(ptr noundef nonnull align 8 dereferenceable(200) %0, ptr noundef %1, double noundef %2, ptr noundef %3, double noundef %4, ptr noundef %5, double noundef %6, ptr noundef nonnull align 8 dereferenceable(69) %7, ptr noundef %8, double noundef %9, ptr noundef nonnull align 8 dereferenceable(69) %10, ptr noundef %11, double noundef %12) #6 align 2 {
  %14 = alloca i1, align 1
  %15 = alloca ptr, align 8
  %16 = alloca ptr, align 8
  %17 = alloca double, align 8
  %18 = alloca ptr, align 8
  %19 = alloca double, align 8
  %20 = alloca ptr, align 8
  %21 = alloca double, align 8
  %22 = alloca ptr, align 8
  %23 = alloca ptr, align 8
  %24 = alloca double, align 8
  %25 = alloca ptr, align 8
  %26 = alloca ptr, align 8
  %27 = alloca double, align 8
  store ptr %0, ptr %15, align 8, !tbaa !18
  store ptr %1, ptr %16, align 8, !tbaa !102
  store double %2, ptr %17, align 8, !tbaa !104
  store ptr %3, ptr %18, align 8, !tbaa !105
  store double %4, ptr %19, align 8, !tbaa !104
  store ptr %5, ptr %20, align 8, !tbaa !105
  store double %6, ptr %21, align 8, !tbaa !104
  store ptr %7, ptr %22, align 8, !tbaa !107
  store ptr %8, ptr %23, align 8, !tbaa !105
  store double %9, ptr %24, align 8, !tbaa !104
  store ptr %10, ptr %25, align 8, !tbaa !107
  store ptr %11, ptr %26, align 8, !tbaa !105
  store double %12, ptr %27, align 8, !tbaa !104
  %28 = load ptr, ptr %15, align 8
  %29 = load ptr, ptr %16, align 8, !tbaa !102
  %30 = icmp ne ptr %29, null
  br i1 %30, label %31, label %37

31:                                               ; preds = %13
  %32 = load ptr, ptr %16, align 8, !tbaa !102
  %33 = call noundef i32 @_ZNK5Ipopt12TaggedObject6GetTagEv(ptr noundef nonnull align 8 dereferenceable(56) %32)
  %34 = getelementptr inbounds nuw %"class.Ipopt::LowRankSSAugSystemSolver", ptr %28, i32 0, i32 3
  %35 = load i32, ptr %34, align 4, !tbaa !52
  %36 = icmp ne i32 %33, %35
  br i1 %36, label %145, label %37

37:                                               ; preds = %31, %13
  %38 = load ptr, ptr %16, align 8, !tbaa !102
  %39 = icmp ne ptr %38, null
  br i1 %39, label %44, label %40

40:                                               ; preds = %37
  %41 = getelementptr inbounds nuw %"class.Ipopt::LowRankSSAugSystemSolver", ptr %28, i32 0, i32 3
  %42 = load i32, ptr %41, align 4, !tbaa !52
  %43 = icmp ne i32 %42, 0
  br i1 %43, label %145, label %44

44:                                               ; preds = %40, %37
  %45 = load double, ptr %17, align 8, !tbaa !104
  %46 = getelementptr inbounds nuw %"class.Ipopt::LowRankSSAugSystemSolver", ptr %28, i32 0, i32 4
  %47 = load double, ptr %46, align 8, !tbaa !53
  %48 = fcmp une double %45, %47
  br i1 %48, label %145, label %49

49:                                               ; preds = %44
  %50 = load ptr, ptr %18, align 8, !tbaa !105
  %51 = icmp ne ptr %50, null
  br i1 %51, label %52, label %58

52:                                               ; preds = %49
  %53 = load ptr, ptr %18, align 8, !tbaa !105
  %54 = call noundef i32 @_ZNK5Ipopt12TaggedObject6GetTagEv(ptr noundef nonnull align 8 dereferenceable(56) %53)
  %55 = getelementptr inbounds nuw %"class.Ipopt::LowRankSSAugSystemSolver", ptr %28, i32 0, i32 5
  %56 = load i32, ptr %55, align 8, !tbaa !54
  %57 = icmp ne i32 %54, %56
  br i1 %57, label %145, label %58

58:                                               ; preds = %52, %49
  %59 = load ptr, ptr %18, align 8, !tbaa !105
  %60 = icmp ne ptr %59, null
  br i1 %60, label %65, label %61

61:                                               ; preds = %58
  %62 = getelementptr inbounds nuw %"class.Ipopt::LowRankSSAugSystemSolver", ptr %28, i32 0, i32 5
  %63 = load i32, ptr %62, align 8, !tbaa !54
  %64 = icmp ne i32 %63, 0
  br i1 %64, label %145, label %65

65:                                               ; preds = %61, %58
  %66 = load double, ptr %19, align 8, !tbaa !104
  %67 = getelementptr inbounds nuw %"class.Ipopt::LowRankSSAugSystemSolver", ptr %28, i32 0, i32 6
  %68 = load double, ptr %67, align 8, !tbaa !55
  %69 = fcmp une double %66, %68
  br i1 %69, label %145, label %70

70:                                               ; preds = %65
  %71 = load ptr, ptr %20, align 8, !tbaa !105
  %72 = icmp ne ptr %71, null
  br i1 %72, label %73, label %79

73:                                               ; preds = %70
  %74 = load ptr, ptr %20, align 8, !tbaa !105
  %75 = call noundef i32 @_ZNK5Ipopt12TaggedObject6GetTagEv(ptr noundef nonnull align 8 dereferenceable(56) %74)
  %76 = getelementptr inbounds nuw %"class.Ipopt::LowRankSSAugSystemSolver", ptr %28, i32 0, i32 7
  %77 = load i32, ptr %76, align 8, !tbaa !56
  %78 = icmp ne i32 %75, %77
  br i1 %78, label %145, label %79

79:                                               ; preds = %73, %70
  %80 = load ptr, ptr %20, align 8, !tbaa !105
  %81 = icmp ne ptr %80, null
  br i1 %81, label %86, label %82

82:                                               ; preds = %79
  %83 = getelementptr inbounds nuw %"class.Ipopt::LowRankSSAugSystemSolver", ptr %28, i32 0, i32 7
  %84 = load i32, ptr %83, align 8, !tbaa !56
  %85 = icmp ne i32 %84, 0
  br i1 %85, label %145, label %86

86:                                               ; preds = %82, %79
  %87 = load double, ptr %21, align 8, !tbaa !104
  %88 = getelementptr inbounds nuw %"class.Ipopt::LowRankSSAugSystemSolver", ptr %28, i32 0, i32 8
  %89 = load double, ptr %88, align 8, !tbaa !57
  %90 = fcmp une double %87, %89
  br i1 %90, label %145, label %91

91:                                               ; preds = %86
  %92 = load ptr, ptr %22, align 8, !tbaa !107
  %93 = call noundef i32 @_ZNK5Ipopt12TaggedObject6GetTagEv(ptr noundef nonnull align 8 dereferenceable(56) %92)
  %94 = getelementptr inbounds nuw %"class.Ipopt::LowRankSSAugSystemSolver", ptr %28, i32 0, i32 9
  %95 = load i32, ptr %94, align 8, !tbaa !58
  %96 = icmp ne i32 %93, %95
  br i1 %96, label %145, label %97

97:                                               ; preds = %91
  %98 = load ptr, ptr %23, align 8, !tbaa !105
  %99 = icmp ne ptr %98, null
  br i1 %99, label %100, label %106

100:                                              ; preds = %97
  %101 = load ptr, ptr %23, align 8, !tbaa !105
  %102 = call noundef i32 @_ZNK5Ipopt12TaggedObject6GetTagEv(ptr noundef nonnull align 8 dereferenceable(56) %101)
  %103 = getelementptr inbounds nuw %"class.Ipopt::LowRankSSAugSystemSolver", ptr %28, i32 0, i32 10
  %104 = load i32, ptr %103, align 4, !tbaa !59
  %105 = icmp ne i32 %102, %104
  br i1 %105, label %145, label %106

106:                                              ; preds = %100, %97
  %107 = load ptr, ptr %23, align 8, !tbaa !105
  %108 = icmp ne ptr %107, null
  br i1 %108, label %113, label %109

109:                                              ; preds = %106
  %110 = getelementptr inbounds nuw %"class.Ipopt::LowRankSSAugSystemSolver", ptr %28, i32 0, i32 10
  %111 = load i32, ptr %110, align 4, !tbaa !59
  %112 = icmp ne i32 %111, 0
  br i1 %112, label %145, label %113

113:                                              ; preds = %109, %106
  %114 = load double, ptr %24, align 8, !tbaa !104
  %115 = getelementptr inbounds nuw %"class.Ipopt::LowRankSSAugSystemSolver", ptr %28, i32 0, i32 11
  %116 = load double, ptr %115, align 8, !tbaa !60
  %117 = fcmp une double %114, %116
  br i1 %117, label %145, label %118

118:                                              ; preds = %113
  %119 = load ptr, ptr %25, align 8, !tbaa !107
  %120 = call noundef i32 @_ZNK5Ipopt12TaggedObject6GetTagEv(ptr noundef nonnull align 8 dereferenceable(56) %119)
  %121 = getelementptr inbounds nuw %"class.Ipopt::LowRankSSAugSystemSolver", ptr %28, i32 0, i32 12
  %122 = load i32, ptr %121, align 8, !tbaa !61
  %123 = icmp ne i32 %120, %122
  br i1 %123, label %145, label %124

124:                                              ; preds = %118
  %125 = load ptr, ptr %26, align 8, !tbaa !105
  %126 = icmp ne ptr %125, null
  br i1 %126, label %127, label %133

127:                                              ; preds = %124
  %128 = load ptr, ptr %26, align 8, !tbaa !105
  %129 = call noundef i32 @_ZNK5Ipopt12TaggedObject6GetTagEv(ptr noundef nonnull align 8 dereferenceable(56) %128)
  %130 = getelementptr inbounds nuw %"class.Ipopt::LowRankSSAugSystemSolver", ptr %28, i32 0, i32 13
  %131 = load i32, ptr %130, align 4, !tbaa !62
  %132 = icmp ne i32 %129, %131
  br i1 %132, label %145, label %133

133:                                              ; preds = %127, %124
  %134 = load ptr, ptr %26, align 8, !tbaa !105
  %135 = icmp ne ptr %134, null
  br i1 %135, label %140, label %136

136:                                              ; preds = %133
  %137 = getelementptr inbounds nuw %"class.Ipopt::LowRankSSAugSystemSolver", ptr %28, i32 0, i32 13
  %138 = load i32, ptr %137, align 4, !tbaa !62
  %139 = icmp ne i32 %138, 0
  br i1 %139, label %145, label %140

140:                                              ; preds = %136, %133
  %141 = load double, ptr %27, align 8, !tbaa !104
  %142 = getelementptr inbounds nuw %"class.Ipopt::LowRankSSAugSystemSolver", ptr %28, i32 0, i32 14
  %143 = load double, ptr %142, align 8, !tbaa !63
  %144 = fcmp une double %141, %143
  br i1 %144, label %145, label %146

145:                                              ; preds = %140, %136, %127, %118, %113, %109, %100, %91, %86, %82, %73, %65, %61, %52, %44, %40, %31
  store i1 true, ptr %14, align 1
  br label %147

146:                                              ; preds = %140
  store i1 false, ptr %14, align 1
  br label %147

147:                                              ; preds = %146, %145
  %148 = load i1, ptr %14, align 1
  ret i1 %148
}