; Function Attrs: mustprogress nofree norecurse nosync nounwind willreturn memory(argmem: read) uwtable
define noundef zeroext i1 @_ZN5Ipopt24LowRankSSAugSystemSolver29AugmentedSystemRequiresChangeEPKNS_9SymMatrixEdPKNS_6VectorEdS6_dRKNS_6MatrixES6_dS9_S6_d(ptr noundef nonnull readonly align 8 captures(none) dereferenceable(200) %0, ptr noundef readonly %1, double noundef %2, ptr noundef readonly %3, double noundef %4, ptr noundef readonly %5, double noundef %6, ptr noundef nonnull readonly align 8 captures(none) dereferenceable(69) %7, ptr noundef readonly %8, double noundef %9, ptr noundef nonnull readonly align 8 captures(none) dereferenceable(69) %10, ptr noundef readonly %11, double noundef %12) local_unnamed_addr #9 align 2 {
  %.not = icmp eq ptr %1, null
  br i1 %.not, label %.critedge, label %14

14:                                               ; preds = %13
  %15 = getelementptr inbounds nuw i8, ptr %1, i64 48
  %16 = load i32, ptr %15, align 8, !tbaa !61
  %17 = getelementptr inbounds nuw i8, ptr %0, i64 68
  %18 = load i32, ptr %17, align 4, !tbaa !70
  %.not29 = icmp ne i32 %16, %18
  %.old66 = getelementptr inbounds nuw i8, ptr %0, i64 72
  %.old67 = load double, ptr %.old66, align 8
  %.old68 = fcmp une double %2, %.old67
  %or.cond85 = select i1 %.not29, i1 true, i1 %.old68
  br i1 %or.cond85, label %69, label %22

.critedge:                                        ; preds = %13
  %.old = getelementptr inbounds nuw i8, ptr %0, i64 68
  %.old45 = load i32, ptr %.old, align 4, !tbaa !70
  %.not30.old = icmp ne i32 %.old45, 0
  %19 = getelementptr inbounds nuw i8, ptr %0, i64 72
  %20 = load double, ptr %19, align 8
  %21 = fcmp une double %2, %20
  %or.cond = select i1 %.not30.old, i1 true, i1 %21
  br i1 %or.cond, label %69, label %22

22:                                               ; preds = %14, %.critedge
  %.not31 = icmp eq ptr %3, null
  br i1 %.not31, label %.critedge47, label %23

23:                                               ; preds = %22
  %24 = getelementptr inbounds nuw i8, ptr %3, i64 48
  %25 = load i32, ptr %24, align 8, !tbaa !61
  %26 = getelementptr inbounds nuw i8, ptr %0, i64 80
  %27 = load i32, ptr %26, align 8, !tbaa !72
  %.not32 = icmp ne i32 %25, %27
  %.old69 = getelementptr inbounds nuw i8, ptr %0, i64 88
  %.old70 = load double, ptr %.old69, align 8
  %.old71 = fcmp une double %4, %.old70
  %or.cond86 = select i1 %.not32, i1 true, i1 %.old71
  br i1 %or.cond86, label %69, label %31

.critedge47:                                      ; preds = %22
  %.old48 = getelementptr inbounds nuw i8, ptr %0, i64 80
  %.old49 = load i32, ptr %.old48, align 8, !tbaa !72
  %.not33.old = icmp ne i32 %.old49, 0
  %28 = getelementptr inbounds nuw i8, ptr %0, i64 88
  %29 = load double, ptr %28, align 8
  %30 = fcmp une double %4, %29
  %or.cond72 = select i1 %.not33.old, i1 true, i1 %30
  br i1 %or.cond72, label %69, label %31

31:                                               ; preds = %23, %.critedge47
  %.not34 = icmp eq ptr %5, null
  br i1 %.not34, label %.critedge52, label %32

32:                                               ; preds = %31
  %33 = getelementptr inbounds nuw i8, ptr %5, i64 48
  %34 = load i32, ptr %33, align 8, !tbaa !61
  %35 = getelementptr inbounds nuw i8, ptr %0, i64 96
  %36 = load i32, ptr %35, align 8, !tbaa !39
  %.not35 = icmp ne i32 %34, %36
  %.old73 = getelementptr inbounds nuw i8, ptr %0, i64 104
  %.old74 = load double, ptr %.old73, align 8
  %.old75 = fcmp une double %6, %.old74
  %or.cond87 = select i1 %.not35, i1 true, i1 %.old75
  br i1 %or.cond87, label %69, label %40

.critedge52:                                      ; preds = %31
  %.old53 = getelementptr inbounds nuw i8, ptr %0, i64 96
  %.old54 = load i32, ptr %.old53, align 8, !tbaa !39
  %.not36.old = icmp ne i32 %.old54, 0
  %37 = getelementptr inbounds nuw i8, ptr %0, i64 104
  %38 = load double, ptr %37, align 8
  %39 = fcmp une double %6, %38
  %or.cond76 = select i1 %.not36.old, i1 true, i1 %39
  br i1 %or.cond76, label %69, label %40

40:                                               ; preds = %32, %.critedge52
  %41 = getelementptr inbounds nuw i8, ptr %7, i64 48
  %42 = load i32, ptr %41, align 8, !tbaa !61
  %43 = getelementptr inbounds nuw i8, ptr %0, i64 112
  %44 = load i32, ptr %43, align 8, !tbaa !74
  %.not37 = icmp eq i32 %42, %44
  br i1 %.not37, label %45, label %69

45:                                               ; preds = %40
  %.not38 = icmp eq ptr %8, null
  br i1 %.not38, label %.critedge57, label %46

46:                                               ; preds = %45
  %47 = getelementptr inbounds nuw i8, ptr %8, i64 48
  %48 = load i32, ptr %47, align 8, !tbaa !61
  %49 = getelementptr inbounds nuw i8, ptr %0, i64 116
  %50 = load i32, ptr %49, align 4, !tbaa !75
  %.not39 = icmp ne i32 %48, %50
  %.old77 = getelementptr inbounds nuw i8, ptr %0, i64 120
  %.old78 = load double, ptr %.old77, align 8
  %.old79 = fcmp une double %9, %.old78
  %or.cond88 = select i1 %.not39, i1 true, i1 %.old79
  br i1 %or.cond88, label %69, label %54

.critedge57:                                      ; preds = %45
  %.old58 = getelementptr inbounds nuw i8, ptr %0, i64 116
  %.old59 = load i32, ptr %.old58, align 4, !tbaa !75
  %.not40.old = icmp ne i32 %.old59, 0
  %51 = getelementptr inbounds nuw i8, ptr %0, i64 120
  %52 = load double, ptr %51, align 8
  %53 = fcmp une double %9, %52
  %or.cond80 = select i1 %.not40.old, i1 true, i1 %53
  br i1 %or.cond80, label %69, label %54

54:                                               ; preds = %46, %.critedge57
  %55 = getelementptr inbounds nuw i8, ptr %10, i64 48
  %56 = load i32, ptr %55, align 8, !tbaa !61
  %57 = getelementptr inbounds nuw i8, ptr %0, i64 128
  %58 = load i32, ptr %57, align 8, !tbaa !77
  %.not41 = icmp eq i32 %56, %58
  br i1 %.not41, label %59, label %69

59:                                               ; preds = %54
  %.not42 = icmp eq ptr %11, null
  br i1 %.not42, label %.critedge62, label %60

60:                                               ; preds = %59
  %61 = getelementptr inbounds nuw i8, ptr %11, i64 48
  %62 = load i32, ptr %61, align 8, !tbaa !61
  %63 = getelementptr inbounds nuw i8, ptr %0, i64 132
  %64 = load i32, ptr %63, align 4, !tbaa !78
  %.not43 = icmp ne i32 %62, %64
  %.old81 = getelementptr inbounds nuw i8, ptr %0, i64 136
  %.old82 = load double, ptr %.old81, align 8
  %.old83 = fcmp une double %12, %.old82
  %or.cond89 = select i1 %.not43, i1 true, i1 %.old83
  br i1 %or.cond89, label %69, label %68

.critedge62:                                      ; preds = %59
  %.old63 = getelementptr inbounds nuw i8, ptr %0, i64 132
  %.old64 = load i32, ptr %.old63, align 4, !tbaa !78
  %.not44.old = icmp ne i32 %.old64, 0
  %65 = getelementptr inbounds nuw i8, ptr %0, i64 136
  %66 = load double, ptr %65, align 8
  %67 = fcmp une double %12, %66
  %or.cond84 = select i1 %.not44.old, i1 true, i1 %67
  br i1 %or.cond84, label %69, label %68

68:                                               ; preds = %60, %.critedge62
  br label %69

69:                                               ; preds = %14, %.critedge, %23, %.critedge47, %32, %.critedge52, %40, %46, %.critedge57, %54, %60, %.critedge62, %68
  %.0 = phi i1 [ false, %68 ], [ true, %.critedge62 ], [ true, %60 ], [ true, %54 ], [ true, %.critedge57 ], [ true, %46 ], [ true, %40 ], [ true, %.critedge52 ], [ true, %32 ], [ true, %.critedge47 ], [ true, %23 ], [ true, %.critedge ], [ true, %14 ]
  ret i1 %.0
}